ARM GAS  C:\Users\capslock\AppData\Local\Temp\ccgzawqk.s 			page 1


   1              		.cpu cortex-m0
   2              		.fpu softvfp
   3              		.eabi_attribute 20, 1
   4              		.eabi_attribute 21, 1
   5              		.eabi_attribute 23, 3
   6              		.eabi_attribute 24, 1
   7              		.eabi_attribute 25, 1
   8              		.eabi_attribute 26, 1
   9              		.eabi_attribute 30, 1
  10              		.eabi_attribute 34, 0
  11              		.eabi_attribute 18, 4
  12              		.code	16
  13              		.file	"accelerometer.c"
  14              		.text
  15              	.Ltext0:
  16              		.cfi_sections	.debug_frame
  17              		.section	.text.mpu_init,"ax",%progbits
  18              		.align	2
  19              		.global	mpu_init
  20              		.code	16
  21              		.thumb_func
  22              		.type	mpu_init, %function
  23              	mpu_init:
  24              	.LFB34:
  25              		.file 1 ".\\accelerometer.c"
   1:.\accelerometer.c **** #include <project.h>
   2:.\accelerometer.c **** #include <stdio.h>
   3:.\accelerometer.c **** #include <functions.h>
   4:.\accelerometer.c **** #include <mpu_register_address.h>
   5:.\accelerometer.c **** 
   6:.\accelerometer.c **** 
   7:.\accelerometer.c **** /************************************************************************************/
   8:.\accelerometer.c **** /********************************Init funktioner*************************************/
   9:.\accelerometer.c **** /************************************************************************************/
  10:.\accelerometer.c **** void mpu_init(MPU_9150_Acc_config_s *configObj) {
  26              		.loc 1 10 0
  27              		.cfi_startproc
  28              	.LVL0:
  29 0000 10B5     		push	{r4, lr}
  30              		.cfi_def_cfa_offset 8
  31              		.cfi_offset 4, -8
  32              		.cfi_offset 14, -4
  33 0002 041C     		mov	r4, r0
  11:.\accelerometer.c ****     configObj->accConfigData = 0b00010000;
  34              		.loc 1 11 0
  35 0004 1023     		mov	r3, #16
  36 0006 0370     		strb	r3, [r0]
  12:.\accelerometer.c ****     configObj->sampleRateDividerData = 0x08;
  37              		.loc 1 12 0
  38 0008 083B     		sub	r3, r3, #8
  39 000a 4370     		strb	r3, [r0, #1]
  13:.\accelerometer.c ****     configObj->fifoData = 0b00001000;
  40              		.loc 1 13 0
  41 000c 8370     		strb	r3, [r0, #2]
  14:.\accelerometer.c ****     configObj->powerManagement = 0b00000001;
  42              		.loc 1 14 0
  43 000e 073B     		sub	r3, r3, #7
ARM GAS  C:\Users\capslock\AppData\Local\Temp\ccgzawqk.s 			page 2


  44 0010 C370     		strb	r3, [r0, #3]
  15:.\accelerometer.c ****     
  16:.\accelerometer.c ****     WriteI2CData(PWR_MGMT_1, configObj->powerManagement);
  45              		.loc 1 16 0
  46 0012 6B20     		mov	r0, #107
  47              	.LVL1:
  48 0014 0121     		mov	r1, #1
  49 0016 FFF7FEFF 		bl	WriteI2CData
  50              	.LVL2:
  17:.\accelerometer.c ****     //Sætter sample rate divideren på gyroscopet
  18:.\accelerometer.c ****     WriteI2CData(SAMPLE_RATE_DIVIDER, configObj->sampleRateDividerData); 
  51              		.loc 1 18 0
  52 001a 6178     		ldrb	r1, [r4, #1]
  53 001c 1920     		mov	r0, #25
  54 001e FFF7FEFF 		bl	WriteI2CData
  55              	.LVL3:
  19:.\accelerometer.c ****     WriteI2CData(ACC_CONFIG, configObj->accConfigData);
  56              		.loc 1 19 0
  57 0022 2178     		ldrb	r1, [r4]
  58 0024 1C20     		mov	r0, #28
  59 0026 FFF7FEFF 		bl	WriteI2CData
  60              	.LVL4:
  20:.\accelerometer.c **** }
  61              		.loc 1 20 0
  62              		@ sp needed
  63              	.LVL5:
  64 002a 10BD     		pop	{r4, pc}
  65              		.cfi_endproc
  66              	.LFE34:
  67              		.size	mpu_init, .-mpu_init
  68              		.section	.text.movement_init,"ax",%progbits
  69              		.align	2
  70              		.global	movement_init
  71              		.code	16
  72              		.thumb_func
  73              		.type	movement_init, %function
  74              	movement_init:
  75              	.LFB35:
  21:.\accelerometer.c **** 
  22:.\accelerometer.c **** void movement_init(movement_XY_s *init) {
  76              		.loc 1 22 0
  77              		.cfi_startproc
  78              	.LVL6:
  79 0000 10B5     		push	{r4, lr}
  80              		.cfi_def_cfa_offset 8
  81              		.cfi_offset 4, -8
  82              		.cfi_offset 14, -4
  83              	.LVL7:
  23:.\accelerometer.c ****     uint8 i;
  24:.\accelerometer.c ****     for (i = 0; i < 2; i++) {
  84              		.loc 1 24 0
  85 0002 0023     		mov	r3, #0
  86 0004 14E0     		b	.L3
  87              	.LVL8:
  88              	.L4:
  25:.\accelerometer.c ****         init->acceleration_x[i] = 0;
  89              		.loc 1 25 0 discriminator 3
ARM GAS  C:\Users\capslock\AppData\Local\Temp\ccgzawqk.s 			page 3


  90 0006 5900     		lsl	r1, r3, #1
  91 0008 4118     		add	r1, r0, r1
  92 000a 0022     		mov	r2, #0
  93 000c CA80     		strh	r2, [r1, #6]
  26:.\accelerometer.c ****         init->acceleration_y[i] = 0;
  94              		.loc 1 26 0 discriminator 3
  95 000e 191D     		add	r1, r3, #4
  96 0010 4900     		lsl	r1, r1, #1
  97 0012 4118     		add	r1, r0, r1
  98 0014 4A80     		strh	r2, [r1, #2]
  27:.\accelerometer.c ****         init->velocity_x[i] = 0; 
  99              		.loc 1 27 0 discriminator 3
 100 0016 CA80     		strh	r2, [r1, #6]
  28:.\accelerometer.c ****         init->velocity_y[i] = 0;   
 101              		.loc 1 28 0 discriminator 3
 102 0018 191C     		mov	r1, r3
 103 001a 0831     		add	r1, r1, #8
 104 001c 4C00     		lsl	r4, r1, #1
 105 001e 0419     		add	r4, r0, r4
 106 0020 6280     		strh	r2, [r4, #2]
  29:.\accelerometer.c ****         init->position_x[i] = 0;
 107              		.loc 1 29 0 discriminator 3
 108 0022 9C1D     		add	r4, r3, #6
 109 0024 A400     		lsl	r4, r4, #2
 110 0026 2250     		str	r2, [r4, r0]
  30:.\accelerometer.c ****         init->position_y[i] = 0;
 111              		.loc 1 30 0 discriminator 3
 112 0028 8900     		lsl	r1, r1, #2
 113 002a 0A50     		str	r2, [r1, r0]
  24:.\accelerometer.c ****         init->acceleration_x[i] = 0;
 114              		.loc 1 24 0 discriminator 3
 115 002c 0133     		add	r3, r3, #1
 116              	.LVL9:
 117 002e DBB2     		uxtb	r3, r3
 118              	.LVL10:
 119              	.L3:
  24:.\accelerometer.c ****         init->acceleration_x[i] = 0;
 120              		.loc 1 24 0 is_stmt 0 discriminator 1
 121 0030 012B     		cmp	r3, #1
 122 0032 E8D9     		bls	.L4
  31:.\accelerometer.c ****     }
  32:.\accelerometer.c ****     init->countx = 0;
 123              		.loc 1 32 0 is_stmt 1
 124 0034 0023     		mov	r3, #0
 125              	.LVL11:
 126 0036 0370     		strb	r3, [r0]
  33:.\accelerometer.c ****     init->county = 0;
 127              		.loc 1 33 0
 128 0038 4370     		strb	r3, [r0, #1]
  34:.\accelerometer.c ****     init->AccErrorX = 0;
 129              		.loc 1 34 0
 130 003a 4380     		strh	r3, [r0, #2]
  35:.\accelerometer.c ****     
  36:.\accelerometer.c ****        
  37:.\accelerometer.c **** }
 131              		.loc 1 37 0
 132              		@ sp needed
ARM GAS  C:\Users\capslock\AppData\Local\Temp\ccgzawqk.s 			page 4


 133 003c 10BD     		pop	{r4, pc}
 134              		.cfi_endproc
 135              	.LFE35:
 136              		.size	movement_init, .-movement_init
 137 003e C046     		.section	.text.kalmanFilter_init,"ax",%progbits
 138              		.align	2
 139              		.global	kalmanFilter_init
 140              		.code	16
 141              		.thumb_func
 142              		.type	kalmanFilter_init, %function
 143              	kalmanFilter_init:
 144              	.LFB36:
  38:.\accelerometer.c **** 
  39:.\accelerometer.c **** void kalmanFilter_init(kalmanFilterValues_s *init) {
 145              		.loc 1 39 0
 146              		.cfi_startproc
 147              	.LVL12:
  40:.\accelerometer.c ****     init->Estimate[1] = 0;
 148              		.loc 1 40 0
 149 0000 0023     		mov	r3, #0
 150 0002 8360     		str	r3, [r0, #8]
  41:.\accelerometer.c ****     init->Estimate[0] = 0;
 151              		.loc 1 41 0
 152 0004 4360     		str	r3, [r0, #4]
  42:.\accelerometer.c ****     init->Error_Estimate[1] = 5;
 153              		.loc 1 42 0
 154 0006 024A     		ldr	r2, .L6
 155 0008 0261     		str	r2, [r0, #16]
  43:.\accelerometer.c ****     init->Error_Estimate[0] = 5;
 156              		.loc 1 43 0
 157 000a C260     		str	r2, [r0, #12]
  44:.\accelerometer.c ****     init->KG = 0;
 158              		.loc 1 44 0
 159 000c 0360     		str	r3, [r0]
  45:.\accelerometer.c **** }
 160              		.loc 1 45 0
 161              		@ sp needed
 162 000e 7047     		bx	lr
 163              	.L7:
 164              		.align	2
 165              	.L6:
 166 0010 0000A040 		.word	1084227584
 167              		.cfi_endproc
 168              	.LFE36:
 169              		.size	kalmanFilter_init, .-kalmanFilter_init
 170              		.section	.text.setAcceleration,"ax",%progbits
 171              		.align	2
 172              		.global	setAcceleration
 173              		.code	16
 174              		.thumb_func
 175              		.type	setAcceleration, %function
 176              	setAcceleration:
 177              	.LFB37:
  46:.\accelerometer.c **** 
  47:.\accelerometer.c **** /************************************************************************************/
  48:.\accelerometer.c **** /********************************Set funktioner**************************************/
  49:.\accelerometer.c **** /************************************************************************************/
ARM GAS  C:\Users\capslock\AppData\Local\Temp\ccgzawqk.s 			page 5


  50:.\accelerometer.c **** 
  51:.\accelerometer.c **** void setAcceleration(movement_XY_s *movementData) {
 178              		.loc 1 51 0
 179              		.cfi_startproc
 180              	.LVL13:
 181 0000 30B5     		push	{r4, r5, lr}
 182              		.cfi_def_cfa_offset 12
 183              		.cfi_offset 4, -12
 184              		.cfi_offset 5, -8
 185              		.cfi_offset 14, -4
 186 0002 83B0     		sub	sp, sp, #12
 187              		.cfi_def_cfa_offset 24
 188 0004 051C     		mov	r5, r0
  52:.\accelerometer.c ****     int8_t temp_acc_H[2];
  53:.\accelerometer.c ****     int8_t temp_acc_L[2];
  54:.\accelerometer.c ****     int16_t acc_total[2];
  55:.\accelerometer.c ****     
  56:.\accelerometer.c ****     //Variable til for løkke
  57:.\accelerometer.c **** 
  58:.\accelerometer.c ****    
  59:.\accelerometer.c ****         temp_acc_H[1] = ReadI2CData(ACCEL_XOUT_H);
 189              		.loc 1 59 0
 190 0006 3B20     		mov	r0, #59
 191              	.LVL14:
 192 0008 FFF7FEFF 		bl	ReadI2CData
 193              	.LVL15:
 194 000c C4B2     		uxtb	r4, r0
  60:.\accelerometer.c ****         temp_acc_L[1] = ReadI2CData(ACCEL_XOUT_L);
 195              		.loc 1 60 0
 196 000e 3C20     		mov	r0, #60
 197 0010 FFF7FEFF 		bl	ReadI2CData
 198              	.LVL16:
  61:.\accelerometer.c ****         acc_total[1] = ((temp_acc_H[1] << 8) + temp_acc_L[1]);
 199              		.loc 1 61 0
 200 0014 64B2     		sxtb	r4, r4
 201 0016 2402     		lsl	r4, r4, #8
 202 0018 40B2     		sxtb	r0, r0
 203 001a 0019     		add	r0, r0, r4
  62:.\accelerometer.c ****         //Trækker x-accel fejl fra værdien
  63:.\accelerometer.c ****         acc_total[1] -= movementData->AccErrorX;
 204              		.loc 1 63 0
 205 001c 6C88     		ldrh	r4, [r5, #2]
 206 001e 001B     		sub	r0, r0, r4
 207 0020 80B2     		uxth	r0, r0
 208 0022 01AB     		add	r3, sp, #4
 209 0024 5880     		strh	r0, [r3, #2]
  64:.\accelerometer.c ****         //Checker om accelerationen skal betragted som 0
  65:.\accelerometer.c ****         if (acc_total[1] < TOLERANCE && acc_total[1] > -TOLERANCE) {
 210              		.loc 1 65 0
 211 0026 0028     		cmp	r0, #0
 212 0028 01D1     		bne	.L9
  66:.\accelerometer.c ****             acc_total[1] = 0;
 213              		.loc 1 66 0
 214 002a 0022     		mov	r2, #0
 215 002c 5A80     		strh	r2, [r3, #2]
 216              	.L9:
  67:.\accelerometer.c **** 
ARM GAS  C:\Users\capslock\AppData\Local\Temp\ccgzawqk.s 			page 6


  68:.\accelerometer.c ****         }
  69:.\accelerometer.c ****         movementData->acceleration_x[1] = acc_total[1];  
 217              		.loc 1 69 0
 218 002e 01AB     		add	r3, sp, #4
 219 0030 5B88     		ldrh	r3, [r3, #2]
 220 0032 2B81     		strh	r3, [r5, #8]
  70:.\accelerometer.c ****     
  71:.\accelerometer.c **** 
  72:.\accelerometer.c ****   
  73:.\accelerometer.c **** }
 221              		.loc 1 73 0
 222 0034 03B0     		add	sp, sp, #12
 223              		@ sp needed
 224              	.LVL17:
 225 0036 30BD     		pop	{r4, r5, pc}
 226              		.cfi_endproc
 227              	.LFE37:
 228              		.size	setAcceleration, .-setAcceleration
 229              		.section	.text.setVelocity,"ax",%progbits
 230              		.align	2
 231              		.global	setVelocity
 232              		.code	16
 233              		.thumb_func
 234              		.type	setVelocity, %function
 235              	setVelocity:
 236              	.LFB38:
  74:.\accelerometer.c **** 
  75:.\accelerometer.c **** void setVelocity(movement_XY_s *movementData) {
 237              		.loc 1 75 0
 238              		.cfi_startproc
 239              	.LVL18:
 240 0000 30B5     		push	{r4, r5, lr}
 241              		.cfi_def_cfa_offset 12
 242              		.cfi_offset 4, -12
 243              		.cfi_offset 5, -8
 244              		.cfi_offset 14, -4
  76:.\accelerometer.c ****     if (movementData->acceleration_x[1] == 0) {
 245              		.loc 1 76 0
 246 0002 0389     		ldrh	r3, [r0, #8]
 247 0004 002B     		cmp	r3, #0
 248 0006 09D1     		bne	.L11
  77:.\accelerometer.c ****         movementData->countx++;
 249              		.loc 1 77 0
 250 0008 0378     		ldrb	r3, [r0]
 251 000a 0133     		add	r3, r3, #1
 252 000c DBB2     		uxtb	r3, r3
 253 000e 0370     		strb	r3, [r0]
  78:.\accelerometer.c ****         if (movementData->countx > 5) {
 254              		.loc 1 78 0
 255 0010 052B     		cmp	r3, #5
 256 0012 1CD9     		bls	.L10
  79:.\accelerometer.c ****             movementData->velocity_x[1] = 0;   
 257              		.loc 1 79 0
 258 0014 0023     		mov	r3, #0
 259 0016 0382     		strh	r3, [r0, #16]
  80:.\accelerometer.c ****             movementData->velocity_x[0] = 0;  
 260              		.loc 1 80 0
ARM GAS  C:\Users\capslock\AppData\Local\Temp\ccgzawqk.s 			page 7


 261 0018 C381     		strh	r3, [r0, #14]
 262 001a 18E0     		b	.L10
 263              	.L11:
  81:.\accelerometer.c ****         }
  82:.\accelerometer.c ****     }
  83:.\accelerometer.c ****     else {
  84:.\accelerometer.c ****         movementData->countx = 0; 
 264              		.loc 1 84 0
 265 001c 0022     		mov	r2, #0
 266 001e 0270     		strb	r2, [r0]
  85:.\accelerometer.c ****         //Tager integrale af x-acceleration for at finde hastighed
  86:.\accelerometer.c ****         movementData->velocity_x[1] = movementData->velocity_x[0]+movementData->acceleration_x[0]+(
 267              		.loc 1 86 0
 268 0020 C189     		ldrh	r1, [r0, #14]
 269 0022 C288     		ldrh	r2, [r0, #6]
 270 0024 1BB2     		sxth	r3, r3
 271 0026 14B2     		sxth	r4, r2
 272 0028 1B1B     		sub	r3, r3, r4
 273 002a DC0F     		lsr	r4, r3, #31
 274 002c E318     		add	r3, r4, r3
 275 002e 5B10     		asr	r3, r3, #1
 276 0030 8A18     		add	r2, r1, r2
 277 0032 D318     		add	r3, r2, r3
 278 0034 0382     		strh	r3, [r0, #16]
  87:.\accelerometer.c ****         //Tager integrale af y-acceleration for at finde hastighed
  88:.\accelerometer.c ****         movementData->velocity_y[1] = movementData->velocity_y[0]+movementData->acceleration_y[1]+(
 279              		.loc 1 88 0
 280 0036 448A     		ldrh	r4, [r0, #18]
 281 0038 8189     		ldrh	r1, [r0, #12]
 282 003a 0BB2     		sxth	r3, r1
 283 003c 0A25     		mov	r5, #10
 284 003e 425F     		ldrsh	r2, [r0, r5]
 285 0040 9B18     		add	r3, r3, r2
 286 0042 DA0F     		lsr	r2, r3, #31
 287 0044 D318     		add	r3, r2, r3
 288 0046 5B10     		asr	r3, r3, #1
 289 0048 6118     		add	r1, r4, r1
 290 004a CB18     		add	r3, r1, r3
 291 004c 8382     		strh	r3, [r0, #20]
 292              	.L10:
  89:.\accelerometer.c ****     }
  90:.\accelerometer.c ****     
  91:.\accelerometer.c ****     
  92:.\accelerometer.c ****     
  93:.\accelerometer.c **** }
 293              		.loc 1 93 0
 294              		@ sp needed
 295 004e 30BD     		pop	{r4, r5, pc}
 296              		.cfi_endproc
 297              	.LFE38:
 298              		.size	setVelocity, .-setVelocity
 299              		.section	.text.setPosition,"ax",%progbits
 300              		.align	2
 301              		.global	setPosition
 302              		.code	16
 303              		.thumb_func
 304              		.type	setPosition, %function
ARM GAS  C:\Users\capslock\AppData\Local\Temp\ccgzawqk.s 			page 8


 305              	setPosition:
 306              	.LFB39:
  94:.\accelerometer.c **** 
  95:.\accelerometer.c **** void setPosition(movement_XY_s *movementData) {
 307              		.loc 1 95 0
 308              		.cfi_startproc
 309              	.LVL19:
 310 0000 10B5     		push	{r4, lr}
 311              		.cfi_def_cfa_offset 8
 312              		.cfi_offset 4, -8
 313              		.cfi_offset 14, -4
  96:.\accelerometer.c ****     //Tager integrale af x-acceleration for at finde hastighed
  97:.\accelerometer.c ****     movementData->position_x[1] = movementData->position_x[0]+movementData->velocity_x[0]+((movemen
 314              		.loc 1 97 0
 315 0002 0E22     		mov	r2, #14
 316 0004 835E     		ldrsh	r3, [r0, r2]
 317 0006 8269     		ldr	r2, [r0, #24]
 318 0008 D418     		add	r4, r2, r3
 319 000a 1022     		mov	r2, #16
 320 000c 815E     		ldrsh	r1, [r0, r2]
 321 000e CA1A     		sub	r2, r1, r3
 322 0010 D10F     		lsr	r1, r2, #31
 323 0012 8A18     		add	r2, r1, r2
 324 0014 5210     		asr	r2, r2, #1
 325 0016 A218     		add	r2, r4, r2
 326 0018 C261     		str	r2, [r0, #28]
  98:.\accelerometer.c ****     //Tager integrale af y-acceleration for at finde hastighed
  99:.\accelerometer.c ****     movementData->position_y[1] = movementData->position_y[0]+movementData->velocity_y[1]+((movemen
 327              		.loc 1 99 0
 328 001a 1421     		mov	r1, #20
 329 001c 425E     		ldrsh	r2, [r0, r1]
 330 001e 016A     		ldr	r1, [r0, #32]
 331 0020 8918     		add	r1, r1, r2
 332 0022 D31A     		sub	r3, r2, r3
 333 0024 DA0F     		lsr	r2, r3, #31
 334 0026 D318     		add	r3, r2, r3
 335 0028 5B10     		asr	r3, r3, #1
 336 002a CB18     		add	r3, r1, r3
 337 002c 4362     		str	r3, [r0, #36]
 100:.\accelerometer.c ****     
 101:.\accelerometer.c **** }
 338              		.loc 1 101 0
 339              		@ sp needed
 340 002e 10BD     		pop	{r4, pc}
 341              		.cfi_endproc
 342              	.LFE39:
 343              		.size	setPosition, .-setPosition
 344              		.section	.text.updateMovement,"ax",%progbits
 345              		.align	2
 346              		.global	updateMovement
 347              		.code	16
 348              		.thumb_func
 349              		.type	updateMovement, %function
 350              	updateMovement:
 351              	.LFB40:
 102:.\accelerometer.c **** 
 103:.\accelerometer.c **** void updateMovement(movement_XY_s *movementData) {
ARM GAS  C:\Users\capslock\AppData\Local\Temp\ccgzawqk.s 			page 9


 352              		.loc 1 103 0
 353              		.cfi_startproc
 354              	.LVL20:
 104:.\accelerometer.c ****     movementData->acceleration_x[0] =  movementData->acceleration_x[1];
 355              		.loc 1 104 0
 356 0000 0389     		ldrh	r3, [r0, #8]
 357 0002 C380     		strh	r3, [r0, #6]
 105:.\accelerometer.c ****     movementData->velocity_x[0] =  movementData->velocity_x[1];
 358              		.loc 1 105 0
 359 0004 038A     		ldrh	r3, [r0, #16]
 360 0006 C381     		strh	r3, [r0, #14]
 106:.\accelerometer.c ****     movementData->position_x[0] =  movementData->position_x[1];
 361              		.loc 1 106 0
 362 0008 C369     		ldr	r3, [r0, #28]
 363 000a 8361     		str	r3, [r0, #24]
 107:.\accelerometer.c ****     
 108:.\accelerometer.c ****     movementData->acceleration_y[0] =  movementData->acceleration_y[1];
 364              		.loc 1 108 0
 365 000c 8389     		ldrh	r3, [r0, #12]
 366 000e 4381     		strh	r3, [r0, #10]
 109:.\accelerometer.c ****     movementData->velocity_y[0] =  movementData->velocity_y[1];
 367              		.loc 1 109 0
 368 0010 838A     		ldrh	r3, [r0, #20]
 369 0012 4382     		strh	r3, [r0, #18]
 110:.\accelerometer.c ****     movementData->position_y[0] =  movementData->position_y[1];
 370              		.loc 1 110 0
 371 0014 436A     		ldr	r3, [r0, #36]
 372 0016 0362     		str	r3, [r0, #32]
 111:.\accelerometer.c ****     
 112:.\accelerometer.c **** }
 373              		.loc 1 112 0
 374              		@ sp needed
 375 0018 7047     		bx	lr
 376              		.cfi_endproc
 377              	.LFE40:
 378              		.size	updateMovement, .-updateMovement
 379              		.global	__aeabi_i2f
 380              		.global	__aeabi_fadd
 381              		.global	__aeabi_fdiv
 382              		.global	__aeabi_fsub
 383              		.global	__aeabi_fmul
 384 001a C046     		.section	.text.kalmanFilter,"ax",%progbits
 385              		.align	2
 386              		.global	kalmanFilter
 387              		.code	16
 388              		.thumb_func
 389              		.type	kalmanFilter, %function
 390              	kalmanFilter:
 391              	.LFB41:
 113:.\accelerometer.c **** 
 114:.\accelerometer.c **** void kalmanFilter(movement_XY_s *movementData, kalmanFilterValues_s *kalmanData) {
 392              		.loc 1 114 0
 393              		.cfi_startproc
 394              	.LVL21:
 395 0000 F0B5     		push	{r4, r5, r6, r7, lr}
 396              		.cfi_def_cfa_offset 20
 397              		.cfi_offset 4, -20
ARM GAS  C:\Users\capslock\AppData\Local\Temp\ccgzawqk.s 			page 10


 398              		.cfi_offset 5, -16
 399              		.cfi_offset 6, -12
 400              		.cfi_offset 7, -8
 401              		.cfi_offset 14, -4
 402 0002 4746     		mov	r7, r8
 403 0004 80B4     		push	{r7}
 404              		.cfi_def_cfa_offset 24
 405              		.cfi_offset 8, -24
 406 0006 071C     		mov	r7, r0
 407 0008 0C1C     		mov	r4, r1
 115:.\accelerometer.c ****     kalmanData->KG = (kalmanData->Error_Estimate[1])/(kalmanData->Error_Estimate[1]+movementData->A
 408              		.loc 1 115 0
 409 000a 0D69     		ldr	r5, [r1, #16]
 410 000c 0223     		mov	r3, #2
 411 000e C05E     		ldrsh	r0, [r0, r3]
 412              	.LVL22:
 413 0010 4000     		lsl	r0, r0, #1
 414 0012 FFF7FEFF 		bl	__aeabi_i2f
 415              	.LVL23:
 416 0016 011C     		add	r1, r0, #0
 417 0018 281C     		add	r0, r5, #0
 418 001a FFF7FEFF 		bl	__aeabi_fadd
 419              	.LVL24:
 420 001e 011C     		add	r1, r0, #0
 421 0020 281C     		add	r0, r5, #0
 422 0022 FFF7FEFF 		bl	__aeabi_fdiv
 423              	.LVL25:
 424 0026 051C     		add	r5, r0, #0
 425 0028 2060     		str	r0, [r4]
 116:.\accelerometer.c ****     kalmanData->Estimate[1] = kalmanData->Estimate[0] + kalmanData->KG*(movementData->acceleration_
 426              		.loc 1 116 0
 427 002a 6368     		ldr	r3, [r4, #4]
 428 002c 9846     		mov	r8, r3
 429 002e E668     		ldr	r6, [r4, #12]
 430 0030 0823     		mov	r3, #8
 431 0032 F85E     		ldrsh	r0, [r7, r3]
 432 0034 FFF7FEFF 		bl	__aeabi_i2f
 433              	.LVL26:
 434 0038 311C     		add	r1, r6, #0
 435 003a FFF7FEFF 		bl	__aeabi_fsub
 436              	.LVL27:
 437 003e 011C     		add	r1, r0, #0
 438 0040 281C     		add	r0, r5, #0
 439 0042 FFF7FEFF 		bl	__aeabi_fmul
 440              	.LVL28:
 441 0046 011C     		add	r1, r0, #0
 442 0048 4046     		mov	r0, r8
 443 004a FFF7FEFF 		bl	__aeabi_fadd
 444              	.LVL29:
 445 004e A060     		str	r0, [r4, #8]
 117:.\accelerometer.c ****     kalmanData->Error_Estimate[1] = (1-kalmanData->KG)*kalmanData->Error_Estimate[0];
 446              		.loc 1 117 0
 447 0050 FE20     		mov	r0, #254
 448 0052 8005     		lsl	r0, r0, #22
 449 0054 291C     		add	r1, r5, #0
 450 0056 FFF7FEFF 		bl	__aeabi_fsub
 451              	.LVL30:
ARM GAS  C:\Users\capslock\AppData\Local\Temp\ccgzawqk.s 			page 11


 452 005a 011C     		add	r1, r0, #0
 453 005c 301C     		add	r0, r6, #0
 454 005e FFF7FEFF 		bl	__aeabi_fmul
 455              	.LVL31:
 456 0062 2061     		str	r0, [r4, #16]
 118:.\accelerometer.c **** }
 457              		.loc 1 118 0
 458              		@ sp needed
 459              	.LVL32:
 460              	.LVL33:
 461 0064 04BC     		pop	{r2}
 462 0066 9046     		mov	r8, r2
 463 0068 F0BD     		pop	{r4, r5, r6, r7, pc}
 464              		.cfi_endproc
 465              	.LFE41:
 466              		.size	kalmanFilter, .-kalmanFilter
 467 006a C046     		.section	.text.updateKalmanFilter,"ax",%progbits
 468              		.align	2
 469              		.global	updateKalmanFilter
 470              		.code	16
 471              		.thumb_func
 472              		.type	updateKalmanFilter, %function
 473              	updateKalmanFilter:
 474              	.LFB42:
 119:.\accelerometer.c **** 
 120:.\accelerometer.c **** void updateKalmanFilter(kalmanFilterValues_s *kalmanData) {
 475              		.loc 1 120 0
 476              		.cfi_startproc
 477              	.LVL34:
 121:.\accelerometer.c ****     kalmanData->Error_Estimate[0] = kalmanData->Error_Estimate[1];
 478              		.loc 1 121 0
 479 0000 0369     		ldr	r3, [r0, #16]
 480 0002 C360     		str	r3, [r0, #12]
 122:.\accelerometer.c ****     kalmanData->Estimate[0] = kalmanData->Estimate[1];
 481              		.loc 1 122 0
 482 0004 8368     		ldr	r3, [r0, #8]
 483 0006 4360     		str	r3, [r0, #4]
 123:.\accelerometer.c **** }
 484              		.loc 1 123 0
 485              		@ sp needed
 486 0008 7047     		bx	lr
 487              		.cfi_endproc
 488              	.LFE42:
 489              		.size	updateKalmanFilter, .-updateKalmanFilter
 490 000a C046     		.section	.text.calibrateMPU9150,"ax",%progbits
 491              		.align	2
 492              		.global	calibrateMPU9150
 493              		.code	16
 494              		.thumb_func
 495              		.type	calibrateMPU9150, %function
 496              	calibrateMPU9150:
 497              	.LFB43:
 124:.\accelerometer.c **** 
 125:.\accelerometer.c **** 
 126:.\accelerometer.c **** 
 127:.\accelerometer.c **** void calibrateMPU9150(MPU_9150_Acc_config_s *accConfig, movement_XY_s *movementData) {
 498              		.loc 1 127 0
ARM GAS  C:\Users\capslock\AppData\Local\Temp\ccgzawqk.s 			page 12


 499              		.cfi_startproc
 500              	.LVL35:
 501 0000 70B5     		push	{r4, r5, r6, lr}
 502              		.cfi_def_cfa_offset 16
 503              		.cfi_offset 4, -16
 504              		.cfi_offset 5, -12
 505              		.cfi_offset 6, -8
 506              		.cfi_offset 14, -4
 507 0002 0E1C     		mov	r6, r1
 508              	.LVL36:
 128:.\accelerometer.c ****     uint8 i;
 129:.\accelerometer.c ****     int32 temp_acc = 0;
 509              		.loc 1 129 0
 510 0004 0025     		mov	r5, #0
 130:.\accelerometer.c ****     for (i = 0; i < 64;  i++) {
 511              		.loc 1 130 0
 512 0006 0024     		mov	r4, #0
 513 0008 07E0     		b	.L18
 514              	.LVL37:
 515              	.L19:
 131:.\accelerometer.c ****        setAcceleration(movementData); 
 516              		.loc 1 131 0 discriminator 3
 517 000a 301C     		mov	r0, r6
 518 000c FFF7FEFF 		bl	setAcceleration
 519              	.LVL38:
 132:.\accelerometer.c ****        temp_acc += movementData->acceleration_x[1];
 520              		.loc 1 132 0 discriminator 3
 521 0010 0822     		mov	r2, #8
 522 0012 B35E     		ldrsh	r3, [r6, r2]
 523 0014 ED18     		add	r5, r5, r3
 524              	.LVL39:
 130:.\accelerometer.c ****     for (i = 0; i < 64;  i++) {
 525              		.loc 1 130 0 discriminator 3
 526 0016 0134     		add	r4, r4, #1
 527              	.LVL40:
 528 0018 E4B2     		uxtb	r4, r4
 529              	.LVL41:
 530              	.L18:
 130:.\accelerometer.c ****     for (i = 0; i < 64;  i++) {
 531              		.loc 1 130 0 is_stmt 0 discriminator 1
 532 001a 3F2C     		cmp	r4, #63
 533 001c F5D9     		bls	.L19
 133:.\accelerometer.c ****     }
 134:.\accelerometer.c ****     temp_acc = temp_acc >> 6;
 534              		.loc 1 134 0 is_stmt 1
 535 001e AD11     		asr	r5, r5, #6
 536              	.LVL42:
 135:.\accelerometer.c ****     movementData->AccErrorX = temp_acc;
 537              		.loc 1 135 0
 538 0020 7580     		strh	r5, [r6, #2]
 136:.\accelerometer.c ****     
 137:.\accelerometer.c ****     
 138:.\accelerometer.c **** }...
 539              		.loc 1 138 0
 540              		@ sp needed
 541              	.LVL43:
 542              	.LVL44:
ARM GAS  C:\Users\capslock\AppData\Local\Temp\ccgzawqk.s 			page 13


 543              	.LVL45:
 544 0022 70BD     		pop	{r4, r5, r6, pc}
 545              		.cfi_endproc
 546              	.LFE43:
 547              		.size	calibrateMPU9150, .-calibrateMPU9150
 548              		.text
 549              	.Letext0:
 550              		.file 2 "c:\\program files (x86)\\cypress\\psoc creator\\3.3\\psoc creator\\import\\gnu\\arm\\4.9.
 551              		.file 3 "c:\\program files (x86)\\cypress\\psoc creator\\3.3\\psoc creator\\import\\gnu\\arm\\4.9.
 552              		.file 4 "Generated_Source\\PSoC4/cytypes.h"
 553              		.file 5 "./structs.h"
 554              		.file 6 "./functions.h"