ARM GAS  C:\Users\capslock\AppData\Local\Temp\cciXgBiB.s 			page 1


   1              		.cpu cortex-m0
   2              		.fpu softvfp
   3              		.eabi_attribute 20, 1
   4              		.eabi_attribute 21, 1
   5              		.eabi_attribute 23, 3
   6              		.eabi_attribute 24, 1
   7              		.eabi_attribute 25, 1
   8              		.eabi_attribute 26, 1
   9              		.eabi_attribute 30, 1
  10              		.eabi_attribute 34, 0
  11              		.eabi_attribute 18, 4
  12              		.code	16
  13              		.file	"functions.c"
  14              		.text
  15              	.Ltext0:
  16              		.cfi_sections	.debug_frame
  17              		.section	.text.sys_init,"ax",%progbits
  18              		.align	2
  19              		.global	sys_init
  20              		.code	16
  21              		.thumb_func
  22              		.type	sys_init, %function
  23              	sys_init:
  24              	.LFB34:
  25              		.file 1 ".\\functions.c"
   1:.\functions.c **** #include <functions.h>
   2:.\functions.c **** 
   3:.\functions.c **** void sys_init() {
  26              		.loc 1 3 0
  27              		.cfi_startproc
  28 0000 08B5     		push	{r3, lr}
  29              		.cfi_def_cfa_offset 8
  30              		.cfi_offset 3, -8
  31              		.cfi_offset 14, -4
   4:.\functions.c ****      //Internal pull-up resistors for I2C line
   5:.\functions.c ****     I2C_1_scl_SetDriveMode(I2C_1_scl_DM_RES_UP); 
  32              		.loc 1 5 0
  33 0002 0220     		mov	r0, #2
  34 0004 FFF7FEFF 		bl	I2C_1_scl_SetDriveMode
  35              	.LVL0:
   6:.\functions.c ****     I2C_1_sda_SetDriveMode(I2C_1_sda_DM_RES_UP);
  36              		.loc 1 6 0
  37 0008 0220     		mov	r0, #2
  38 000a FFF7FEFF 		bl	I2C_1_sda_SetDriveMode
  39              	.LVL1:
   7:.\functions.c ****     
   8:.\functions.c ****     //Uart activated
   9:.\functions.c ****     
  10:.\functions.c ****     PC_PSoC_UART_Start();
  40              		.loc 1 10 0
  41 000e FFF7FEFF 		bl	PC_PSoC_UART_Start
  42              	.LVL2:
  11:.\functions.c ****     //I2C activated
  12:.\functions.c ****     I2C_1_Start();
  43              		.loc 1 12 0
  44 0012 FFF7FEFF 		bl	I2C_1_Start
  45              	.LVL3:
ARM GAS  C:\Users\capslock\AppData\Local\Temp\cciXgBiB.s 			page 2


  13:.\functions.c **** }
  46              		.loc 1 13 0
  47              		@ sp needed
  48 0016 08BD     		pop	{r3, pc}
  49              		.cfi_endproc
  50              	.LFE34:
  51              		.size	sys_init, .-sys_init
  52              		.section	.text.struct_init,"ax",%progbits
  53              		.align	2
  54              		.global	struct_init
  55              		.code	16
  56              		.thumb_func
  57              		.type	struct_init, %function
  58              	struct_init:
  59              	.LFB35:
  14:.\functions.c **** 
  15:.\functions.c **** void struct_init (MPU_9150_Acc_config_s *accInit, movement_XY_s *movementInit, kalmanFilterValues_s
  60              		.loc 1 15 0
  61              		.cfi_startproc
  62              	.LVL4:
  63 0000 70B5     		push	{r4, r5, r6, lr}
  64              		.cfi_def_cfa_offset 16
  65              		.cfi_offset 4, -16
  66              		.cfi_offset 5, -12
  67              		.cfi_offset 6, -8
  68              		.cfi_offset 14, -4
  69 0002 051C     		mov	r5, r0
  70 0004 0C1C     		mov	r4, r1
  71 0006 161C     		mov	r6, r2
  16:.\functions.c ****     mpu_init(accInit);
  72              		.loc 1 16 0
  73 0008 FFF7FEFF 		bl	mpu_init
  74              	.LVL5:
  17:.\functions.c ****     movement_init(movementInit);
  75              		.loc 1 17 0
  76 000c 201C     		mov	r0, r4
  77 000e FFF7FEFF 		bl	movement_init
  78              	.LVL6:
  18:.\functions.c ****     calibrateMPU9150(accInit, movementInit);
  79              		.loc 1 18 0
  80 0012 281C     		mov	r0, r5
  81 0014 211C     		mov	r1, r4
  82 0016 FFF7FEFF 		bl	calibrateMPU9150
  83              	.LVL7:
  19:.\functions.c ****     kalmanFilter_init(kalmanInit);
  84              		.loc 1 19 0
  85 001a 301C     		mov	r0, r6
  86 001c FFF7FEFF 		bl	kalmanFilter_init
  87              	.LVL8:
  20:.\functions.c **** }
  88              		.loc 1 20 0
  89              		@ sp needed
  90              	.LVL9:
  91              	.LVL10:
  92              	.LVL11:
  93 0020 70BD     		pop	{r4, r5, r6, pc}
  94              		.cfi_endproc
ARM GAS  C:\Users\capslock\AppData\Local\Temp\cciXgBiB.s 			page 3


  95              	.LFE35:
  96              		.size	struct_init, .-struct_init
  97 0022 C046     		.section	.text.WriteI2CData,"ax",%progbits
  98              		.align	2
  99              		.global	WriteI2CData
 100              		.code	16
 101              		.thumb_func
 102              		.type	WriteI2CData, %function
 103              	WriteI2CData:
 104              	.LFB36:
  21:.\functions.c **** 
  22:.\functions.c **** 
  23:.\functions.c **** 
  24:.\functions.c **** uint32_t WriteI2CData(uint8_t mpu_register, uint8_t Data) {
 105              		.loc 1 24 0
 106              		.cfi_startproc
 107              	.LVL12:
 108 0000 00B5     		push	{lr}
 109              		.cfi_def_cfa_offset 4
 110              		.cfi_offset 14, -4
 111 0002 83B0     		sub	sp, sp, #12
 112              		.cfi_def_cfa_offset 16
  25:.\functions.c ****     uint8_t buffer[2] = {mpu_register, Data};
 113              		.loc 1 25 0
 114 0004 01AB     		add	r3, sp, #4
 115 0006 1870     		strb	r0, [r3]
 116 0008 5970     		strb	r1, [r3, #1]
 117              	.LVL13:
  26:.\functions.c ****     uint32_t status = TRANSFER_ERROR;
  27:.\functions.c **** 
  28:.\functions.c ****     
  29:.\functions.c **** 
  30:.\functions.c ****     /* Initialize buffer with packet */
  31:.\functions.c ****     (void) I2C_1_I2CMasterWriteBuf(I2C_SLAVE_ADDR, buffer, BUFFER_SIZE, \
 118              		.loc 1 31 0
 119 000a 6920     		mov	r0, #105
 120              	.LVL14:
 121 000c 191C     		mov	r1, r3
 122              	.LVL15:
 123 000e 0222     		mov	r2, #2
 124 0010 0023     		mov	r3, #0
 125              	.LVL16:
 126 0012 FFF7FEFF 		bl	I2C_1_I2CMasterWriteBuf
 127              	.LVL17:
 128              	.L4:
  32:.\functions.c ****                                   I2C_1_I2C_MODE_COMPLETE_XFER);
  33:.\functions.c ****     while (0u == (I2C_1_I2CMasterStatus() & I2C_1_I2C_MSTAT_WR_CMPLT))
 129              		.loc 1 33 0 discriminator 1
 130 0016 FFF7FEFF 		bl	I2C_1_I2CMasterStatus
 131              	.LVL18:
 132 001a 8307     		lsl	r3, r0, #30
 133 001c FBD5     		bpl	.L4
  34:.\functions.c ****     {
  35:.\functions.c ****     }
  36:.\functions.c ****     
  37:.\functions.c ****     //(void) I2C_1_I2CMasterClearStatus();
  38:.\functions.c ****     return (status);
ARM GAS  C:\Users\capslock\AppData\Local\Temp\cciXgBiB.s 			page 4


  39:.\functions.c **** }
 134              		.loc 1 39 0
 135 001e FF20     		mov	r0, #255
 136 0020 03B0     		add	sp, sp, #12
 137              		@ sp needed
 138 0022 00BD     		pop	{pc}
 139              		.cfi_endproc
 140              	.LFE36:
 141              		.size	WriteI2CData, .-WriteI2CData
 142              		.section	.text.ReadI2CData,"ax",%progbits
 143              		.align	2
 144              		.global	ReadI2CData
 145              		.code	16
 146              		.thumb_func
 147              		.type	ReadI2CData, %function
 148              	ReadI2CData:
 149              	.LFB37:
  40:.\functions.c **** 
  41:.\functions.c **** 
  42:.\functions.c **** int32_t ReadI2CData(uint8_t mpu_register) {
 150              		.loc 1 42 0
 151              		.cfi_startproc
 152              	.LVL19:
 153 0000 10B5     		push	{r4, lr}
 154              		.cfi_def_cfa_offset 8
 155              		.cfi_offset 4, -8
 156              		.cfi_offset 14, -4
 157 0002 82B0     		sub	sp, sp, #8
 158              		.cfi_def_cfa_offset 16
  43:.\functions.c ****     uint8_t buffer[1] = {mpu_register};
 159              		.loc 1 43 0
 160 0004 01A9     		add	r1, sp, #4
 161 0006 0870     		strb	r0, [r1]
  44:.\functions.c ****     (void) I2C_1_I2CMasterWriteBuf(I2C_SLAVE_ADDR, buffer, 1, \
 162              		.loc 1 44 0
 163 0008 6920     		mov	r0, #105
 164              	.LVL20:
 165 000a 0122     		mov	r2, #1
 166 000c 0223     		mov	r3, #2
 167 000e FFF7FEFF 		bl	I2C_1_I2CMasterWriteBuf
 168              	.LVL21:
 169              	.L6:
  45:.\functions.c ****                                   I2C_1_I2C_MODE_NO_STOP);
  46:.\functions.c ****     while (0u == (I2C_1_I2CMasterStatus() & I2C_1_I2C_MSTAT_WR_CMPLT))
 170              		.loc 1 46 0 discriminator 1
 171 0012 FFF7FEFF 		bl	I2C_1_I2CMasterStatus
 172              	.LVL22:
 173 0016 8307     		lsl	r3, r0, #30
 174 0018 FBD5     		bpl	.L6
  47:.\functions.c ****     {
  48:.\functions.c ****     }
  49:.\functions.c ****     uint8_t rbuffer[1];
  50:.\functions.c ****     int32_t status;
  51:.\functions.c ****     I2C_1_I2CMasterReadBuf(I2C_SLAVE_ADDR, rbuffer, 1, \
 175              		.loc 1 51 0
 176 001a 6920     		mov	r0, #105
 177 001c 6946     		mov	r1, sp
ARM GAS  C:\Users\capslock\AppData\Local\Temp\cciXgBiB.s 			page 5


 178 001e 0122     		mov	r2, #1
 179 0020 0123     		mov	r3, #1
 180 0022 FFF7FEFF 		bl	I2C_1_I2CMasterReadBuf
 181              	.LVL23:
 182              	.L7:
  52:.\functions.c ****         I2C_1_I2C_MODE_REPEAT_START);
  53:.\functions.c **** 
  54:.\functions.c ****     /* Waits until master complete read transfer */
  55:.\functions.c ****     while (0u == (I2C_1_I2CMasterStatus() & I2C_1_I2C_MSTAT_RD_CMPLT))
 183              		.loc 1 55 0 discriminator 1
 184 0026 FFF7FEFF 		bl	I2C_1_I2CMasterStatus
 185              	.LVL24:
 186 002a C307     		lsl	r3, r0, #31
 187 002c FBD5     		bpl	.L7
  56:.\functions.c ****     {
  57:.\functions.c ****     }
  58:.\functions.c ****     
  59:.\functions.c ****     if (0u == (I2C_1_I2C_MSTAT_ERR_XFER & I2C_1_I2CMasterStatus())) {
 188              		.loc 1 59 0
 189 002e FFF7FEFF 		bl	I2C_1_I2CMasterStatus
 190              	.LVL25:
 191 0032 8305     		lsl	r3, r0, #22
 192 0034 02D4     		bmi	.L9
  60:.\functions.c ****         status = rbuffer[0];
 193              		.loc 1 60 0
 194 0036 6B46     		mov	r3, sp
 195 0038 1C78     		ldrb	r4, [r3]
 196              	.LVL26:
 197 003a 01E0     		b	.L8
 198              	.LVL27:
 199              	.L9:
  61:.\functions.c ****     }
  62:.\functions.c ****     else {
  63:.\functions.c ****         status = -1;   
 200              		.loc 1 63 0
 201 003c 0124     		mov	r4, #1
 202 003e 6442     		neg	r4, r4
 203              	.L8:
 204              	.LVL28:
  64:.\functions.c ****     }
  65:.\functions.c ****     
  66:.\functions.c ****     I2C_1_I2CMasterClearStatus();
 205              		.loc 1 66 0
 206 0040 FFF7FEFF 		bl	I2C_1_I2CMasterClearStatus
 207              	.LVL29:
  67:.\functions.c ****     return status;
  68:.\functions.c ****     
  69:.\functions.c **** }
 208              		.loc 1 69 0
 209 0044 201C     		mov	r0, r4
 210 0046 02B0     		add	sp, sp, #8
 211              		@ sp needed
 212              	.LVL30:
 213 0048 10BD     		pop	{r4, pc}
 214              		.cfi_endproc
 215              	.LFE37:
 216              		.size	ReadI2CData, .-ReadI2CData
ARM GAS  C:\Users\capslock\AppData\Local\Temp\cciXgBiB.s 			page 6


 217 004a C046     		.section	.text.ReadI2CBytes,"ax",%progbits
 218              		.align	2
 219              		.global	ReadI2CBytes
 220              		.code	16
 221              		.thumb_func
 222              		.type	ReadI2CBytes, %function
 223              	ReadI2CBytes:
 224              	.LFB38:
  70:.\functions.c **** 
  71:.\functions.c **** void ReadI2CBytes(uint8_t numberOfBytes, uint8_t mpu_register, int8_t *Data) {
 225              		.loc 1 71 0
 226              		.cfi_startproc
 227              	.LVL31:
 228 0000 F0B5     		push	{r4, r5, r6, r7, lr}
 229              		.cfi_def_cfa_offset 20
 230              		.cfi_offset 4, -20
 231              		.cfi_offset 5, -16
 232              		.cfi_offset 6, -12
 233              		.cfi_offset 7, -8
 234              		.cfi_offset 14, -4
 235 0002 83B0     		sub	sp, sp, #12
 236              		.cfi_def_cfa_offset 32
 237 0004 071C     		mov	r7, r0
 238 0006 0191     		str	r1, [sp, #4]
 239 0008 161C     		mov	r6, r2
 240              	.LVL32:
  72:.\functions.c ****     int i = 0;
  73:.\functions.c ****     for (i = 0; i < numberOfBytes; i++) {
 241              		.loc 1 73 0
 242 000a 0024     		mov	r4, #0
 243 000c 05E0     		b	.L11
 244              	.LVL33:
 245              	.L12:
  74:.\functions.c ****         Data[i] = ReadI2CData(mpu_register);
 246              		.loc 1 74 0 discriminator 3
 247 000e 3519     		add	r5, r6, r4
 248 0010 0198     		ldr	r0, [sp, #4]
 249 0012 FFF7FEFF 		bl	ReadI2CData
 250              	.LVL34:
 251 0016 2870     		strb	r0, [r5]
  73:.\functions.c ****         Data[i] = ReadI2CData(mpu_register);
 252              		.loc 1 73 0 discriminator 3
 253 0018 0134     		add	r4, r4, #1
 254              	.LVL35:
 255              	.L11:
  73:.\functions.c ****         Data[i] = ReadI2CData(mpu_register);
 256              		.loc 1 73 0 is_stmt 0 discriminator 1
 257 001a A742     		cmp	r7, r4
 258 001c F7DC     		bgt	.L12
  75:.\functions.c ****     }
  76:.\functions.c **** 
  77:.\functions.c **** }
 259              		.loc 1 77 0 is_stmt 1
 260 001e 03B0     		add	sp, sp, #12
 261              		@ sp needed
 262              	.LVL36:
 263              	.LVL37:
ARM GAS  C:\Users\capslock\AppData\Local\Temp\cciXgBiB.s 			page 7


 264 0020 F0BD     		pop	{r4, r5, r6, r7, pc}
 265              		.cfi_endproc
 266              	.LFE38:
 267              		.size	ReadI2CBytes, .-ReadI2CBytes
 268 0022 C046     		.text
 269              	.Letext0:
 270              		.file 2 "c:\\program files (x86)\\cypress\\psoc creator\\3.3\\psoc creator\\import\\gnu\\arm\\4.9.
 271              		.file 3 "c:\\program files (x86)\\cypress\\psoc creator\\3.3\\psoc creator\\import\\gnu\\arm\\4.9.
 272              		.file 4 "Generated_Source\\PSoC4/cytypes.h"
 273              		.file 5 "./structs.h"
 274              		.file 6 "Generated_Source\\PSoC4/I2C_1_scl.h"
 275              		.file 7 "Generated_Source\\PSoC4/I2C_1_sda.h"
 276              		.file 8 "Generated_Source\\PSoC4/PC_PSoC_UART.h"
 277              		.file 9 "Generated_Source\\PSoC4/I2C_1.h"
 278              		.file 10 "./functions.h"
 279              		.file 11 "Generated_Source\\PSoC4/I2C_1_I2C.h"