ARM GAS  C:\Users\EmilR\AppData\Local\Temp\ccB1603F.s 			page 1


   1              		.cpu cortex-m0
   2              		.fpu softvfp
   3              		.eabi_attribute 20, 1
   4              		.eabi_attribute 21, 1
   5              		.eabi_attribute 23, 3
   6              		.eabi_attribute 24, 1
   7              		.eabi_attribute 25, 1
   8              		.eabi_attribute 26, 1
   9              		.eabi_attribute 30, 1
  10              		.eabi_attribute 34, 0
  11              		.eabi_attribute 18, 4
  12              		.code	16
  13              		.file	"main.c"
  14              		.text
  15              	.Ltext0:
  16              		.cfi_sections	.debug_frame
  17              		.global	__aeabi_idiv
  18              		.section	.text.main,"ax",%progbits
  19              		.align	2
  20              		.global	main
  21              		.code	16
  22              		.thumb_func
  23              		.type	main, %function
  24              	main:
  25              	.LFB34:
  26              		.file 1 ".\\main.c"
   1:.\main.c      **** /* ========================================
   2:.\main.c      ****  *
   3:.\main.c      ****  * Copyright YOUR COMPANY, THE YEAR
   4:.\main.c      ****  * All Rights Reserved
   5:.\main.c      ****  * UNPUBLISHED, LICENSED SOFTWARE.
   6:.\main.c      ****  *
   7:.\main.c      ****  * CONFIDENTIAL AND PROPRIETARY INFORMATION
   8:.\main.c      ****  * WHICH IS THE PROPERTY OF your company.
   9:.\main.c      ****  *
  10:.\main.c      ****  * ========================================
  11:.\main.c      **** */
  12:.\main.c      **** 
  13:.\main.c      **** #include <project.h>
  14:.\main.c      **** #include <stdio.h>
  15:.\main.c      **** #include <functions.h>
  16:.\main.c      **** #include <mpu_register_address.h>
  17:.\main.c      **** #include <structs.h>
  18:.\main.c      **** #include <stdlib.h>
  19:.\main.c      **** 
  20:.\main.c      **** #define BUFFER_SIZE     (2u)
  21:.\main.c      **** #define PACKET_SIZE     (BUFFER_SIZE)
  22:.\main.c      **** #define TRANSFER_ERROR    (0xFFu)
  23:.\main.c      **** 
  24:.\main.c      **** int main()
  25:.\main.c      **** {
  27              		.loc 1 25 0
  28              		.cfi_startproc
  29 0000 70B5     		push	{r4, r5, r6, lr}
  30              		.cfi_def_cfa_offset 16
  31              		.cfi_offset 4, -16
  32              		.cfi_offset 5, -12
ARM GAS  C:\Users\EmilR\AppData\Local\Temp\ccB1603F.s 			page 2


  33              		.cfi_offset 6, -8
  34              		.cfi_offset 14, -4
  35 0002 88B0     		sub	sp, sp, #32
  36              		.cfi_def_cfa_offset 48
  26:.\main.c      ****     
  27:.\main.c      ****     CyGlobalIntEnable;      /* Enable global interrupts */
  37              		.loc 1 27 0
  38              	@ 27 ".\main.c" 1
  39 0004 62B6     		CPSIE   i
  40              	@ 0 "" 2
  28:.\main.c      ****     sys_init();
  41              		.loc 1 28 0
  42              		.code	16
  43 0006 FFF7FEFF 		bl	sys_init
  44              	.LVL0:
  29:.\main.c      ****    
  30:.\main.c      ****     char *p1;
  31:.\main.c      ****     char *p2;
  32:.\main.c      ****     char *p3;
  33:.\main.c      ****     char *p4;
  34:.\main.c      ****     char *p5;
  35:.\main.c      ****     char *p6;
  36:.\main.c      ****     
  37:.\main.c      ****     char value[20];
  38:.\main.c      ****     char nylinje[] = "\n\r";
  39:.\main.c      ****     
  40:.\main.c      ****     uint8_t Data = 0x3b;
  41:.\main.c      ****     int8_t acc_x_H[2];
  42:.\main.c      ****     int8_t acc_x_L[2];
  43:.\main.c      ****     int8_t acc_y_H;
  44:.\main.c      ****     int8_t acc_y_L;
  45:.\main.c      ****     int8_t acc_z_H;
  46:.\main.c      ****     int8_t acc_z_L;
  47:.\main.c      ****     
  48:.\main.c      ****     int16_t acc_x_total;
  49:.\main.c      ****     int16_t temp_acc_x[AVGFILTER_M];
  50:.\main.c      ****     int16_t acc_y_total;
  51:.\main.c      ****     int16_t acc_z_total;
  52:.\main.c      ****     
  53:.\main.c      ****     int32_t error[3];
  54:.\main.c      ****     p1 = "I2C connection established \n\r";
  55:.\main.c      ****     p2 = value;
  56:.\main.c      ****     p3 = nylinje;
  57:.\main.c      ****     //Tjekker om slaven eksistere og kan skrive sin adresse tilbage
  58:.\main.c      ****     if (ReadI2CData(WHO_AM_I) != -1) {
  45              		.loc 1 58 0
  46 000a 7520     		mov	r0, #117
  47 000c FFF7FEFF 		bl	ReadI2CData
  48              	.LVL1:
  49 0010 431C     		add	r3, r0, #1
  50 0012 17D0     		beq	.L5
  51              	.LBB2:
  59:.\main.c      ****         
  60:.\main.c      ****         //struct MPU_9150_config accConfig, laver pinter til struct. Allokerer plads i memory til s
  61:.\main.c      ****            
  62:.\main.c      ****         struct MPU_9150_config *accConfigObj = malloc(sizeof(struct MPU_9150_config));
  52              		.loc 1 62 0
ARM GAS  C:\Users\EmilR\AppData\Local\Temp\ccB1603F.s 			page 3


  53 0014 0420     		mov	r0, #4
  54 0016 FFF7FEFF 		bl	malloc
  55              	.LVL2:
  56 001a 041C     		mov	r4, r0
  57              	.LVL3:
  63:.\main.c      **** 
  64:.\main.c      ****         mpu_init(accConfigObj);
  58              		.loc 1 64 0
  59 001c FFF7FEFF 		bl	mpu_init
  60              	.LVL4:
  65:.\main.c      ****         WriteI2CData(PWR_MGMT_1, accConfigObj->powerManagement);
  61              		.loc 1 65 0
  62 0020 E178     		ldrb	r1, [r4, #3]
  63 0022 6B20     		mov	r0, #107
  64 0024 FFF7FEFF 		bl	WriteI2CData
  65              	.LVL5:
  66:.\main.c      ****         //Sætter sample rate divideren på gyroscopet
  67:.\main.c      ****         WriteI2CData(SAMPLE_RATE_DIVIDER, accConfigObj->sampleRateDividerData); 
  66              		.loc 1 67 0
  67 0028 6178     		ldrb	r1, [r4, #1]
  68 002a 1920     		mov	r0, #25
  69 002c FFF7FEFF 		bl	WriteI2CData
  70              	.LVL6:
  68:.\main.c      ****         WriteI2CData(ACC_CONFIG, accConfigObj->accConfigData);
  71              		.loc 1 68 0
  72 0030 2178     		ldrb	r1, [r4]
  73 0032 1C20     		mov	r0, #28
  74 0034 FFF7FEFF 		bl	WriteI2CData
  75              	.LVL7:
  69:.\main.c      ****         CyDelay(20);
  76              		.loc 1 69 0
  77 0038 1420     		mov	r0, #20
  78 003a FFF7FEFF 		bl	CyDelay
  79              	.LVL8:
  70:.\main.c      ****         int16_t data[1];
  71:.\main.c      ****         calibrateMPU9150(error);   
  80              		.loc 1 71 0
  81 003e 6846     		mov	r0, sp
  82 0040 FFF7FEFF 		bl	calibrateMPU9150
  83              	.LVL9:
  84              	.L5:
  85              	.LBE2:
  86              	.LBB3:
  72:.\main.c      ****         
  73:.\main.c      ****     }
  74:.\main.c      ****     
  75:.\main.c      ****     
  76:.\main.c      ****     int enteredForLoop = 0;
  77:.\main.c      ****     for(;;) // endless loop
  78:.\main.c      ****     {
  79:.\main.c      ****         /*MatLab UART*/
  80:.\main.c      **** //        CyDelay(100);
  81:.\main.c      **** //        acc_x_H = ReadI2CData(ACCEL_XOUT_H);
  82:.\main.c      **** //        acc_x_L = ReadI2CData(ACCEL_XOUT_L);
  83:.\main.c      **** //        acc_x_total = (acc_x_H << 8) + acc_x_L;
  84:.\main.c      **** //        
  85:.\main.c      **** //        sprintf(value,"%d_",acc_x_total-error[0]);
ARM GAS  C:\Users\EmilR\AppData\Local\Temp\ccB1603F.s 			page 4


  86:.\main.c      **** //        PC_PSoC_UART_UartPutString(value);
  87:.\main.c      ****         
  88:.\main.c      ****         /*PSoC code*/
  89:.\main.c      ****             int i = 0;
  87              		.loc 1 89 0
  88 0044 0025     		mov	r5, #0
  90:.\main.c      ****             //Midler med AVGFILTER_M tidligere samples
  91:.\main.c      ****             while(i < AVGFILTER_M) {
  89              		.loc 1 91 0
  90 0046 0DE0     		b	.L3
  91              	.LVL10:
  92              	.L4:
  92:.\main.c      ****                 acc_x_H[1] = ReadI2CData(ACCEL_XOUT_H);
  93              		.loc 1 92 0
  94 0048 3B20     		mov	r0, #59
  95 004a FFF7FEFF 		bl	ReadI2CData
  96              	.LVL11:
  97 004e C4B2     		uxtb	r4, r0
  93:.\main.c      ****                 acc_x_L[1] = ReadI2CData(ACCEL_XOUT_L);
  98              		.loc 1 93 0
  99 0050 3C20     		mov	r0, #60
 100 0052 FFF7FEFF 		bl	ReadI2CData
 101              	.LVL12:
  94:.\main.c      ****                 temp_acc_x[i] = (acc_x_H[1] << 8) + acc_x_L[1];
 102              		.loc 1 94 0
 103 0056 64B2     		sxtb	r4, r4
 104 0058 2402     		lsl	r4, r4, #8
 105 005a 40B2     		sxtb	r0, r0
 106 005c 0019     		add	r0, r0, r4
  95:.\main.c      ****                 acc_x_total += temp_acc_x[i];
 107              		.loc 1 95 0
 108 005e 8019     		add	r0, r0, r6
 109 0060 86B2     		uxth	r6, r0
 110              	.LVL13:
  96:.\main.c      ****                 i++;
 111              		.loc 1 96 0
 112 0062 0135     		add	r5, r5, #1
 113              	.LVL14:
 114              	.L3:
  91:.\main.c      ****                 acc_x_H[1] = ReadI2CData(ACCEL_XOUT_H);
 115              		.loc 1 91 0
 116 0064 092D     		cmp	r5, #9
 117 0066 EFDD     		ble	.L4
  97:.\main.c      ****                 }
  98:.\main.c      ****             acc_x_total = acc_x_total / AVGFILTER_M; // Dividere med 32
 118              		.loc 1 98 0
 119 0068 30B2     		sxth	r0, r6
 120 006a 0A21     		mov	r1, #10
 121 006c FFF7FEFF 		bl	__aeabi_idiv
 122              	.LVL15:
 123 0070 86B2     		uxth	r6, r0
 124              	.LVL16:
  99:.\main.c      ****             CyDelay(80);
 125              		.loc 1 99 0
 126 0072 5020     		mov	r0, #80
 127 0074 FFF7FEFF 		bl	CyDelay
 128              	.LVL17:
ARM GAS  C:\Users\EmilR\AppData\Local\Temp\ccB1603F.s 			page 5


 100:.\main.c      **** 
 101:.\main.c      ****         
 102:.\main.c      ****         sprintf(value,"%d_",acc_x_total-error[0]);
 129              		.loc 1 102 0
 130 0078 32B2     		sxth	r2, r6
 131 007a 009B     		ldr	r3, [sp]
 132 007c D21A     		sub	r2, r2, r3
 133 007e 03A8     		add	r0, sp, #12
 134              	.LVL18:
 135 0080 0349     		ldr	r1, .L6
 136 0082 FFF7FEFF 		bl	sprintf
 137              	.LVL19:
 103:.\main.c      ****         PC_PSoC_UART_UartPutString(value);
 138              		.loc 1 103 0
 139 0086 03A8     		add	r0, sp, #12
 140              	.LVL20:
 141 0088 FFF7FEFF 		bl	PC_PSoC_UART_UartPutString
 142              	.LVL21:
 143              	.LBE3:
 104:.\main.c      ****             }
 144              		.loc 1 104 0
 145 008c DAE7     		b	.L5
 146              	.L7:
 147 008e C046     		.align	2
 148              	.L6:
 149 0090 00000000 		.word	.LC0
 150              		.cfi_endproc
 151              	.LFE34:
 152              		.size	main, .-main
 153              		.section	.rodata.str1.4,"aMS",%progbits,1
 154              		.align	2
 155              	.LC0:
 156 0000 25645F00 		.ascii	"%d_\000"
 157              		.text
 158              	.Letext0:
 159              		.file 2 "c:\\program files (x86)\\cypress\\psoc creator\\3.3\\psoc creator\\import\\gnu\\arm\\4.9.
 160              		.file 3 "c:\\program files (x86)\\cypress\\psoc creator\\3.3\\psoc creator\\import\\gnu\\arm\\4.9.
 161              		.file 4 "Generated_Source\\PSoC4/cytypes.h"
 162              		.file 5 "c:\\program files (x86)\\cypress\\psoc creator\\3.3\\psoc creator\\import\\gnu\\arm\\4.9.
 163              		.file 6 "./structs.h"
 164              		.file 7 "c:\\program files (x86)\\cypress\\psoc creator\\3.3\\psoc creator\\import\\gnu\\arm\\4.9.
 165              		.file 8 "./functions.h"
 166              		.file 9 "Generated_Source\\PSoC4/CyLib.h"
 167              		.file 10 "c:\\program files (x86)\\cypress\\psoc creator\\3.3\\psoc creator\\import\\gnu\\arm\\4.9
 168              		.file 11 "Generated_Source\\PSoC4/PC_PSoC_UART_SPI_UART.h"